; Function Attrs: mustprogress uwtable
define dso_local void @__cxa_vec_dtor(ptr noundef %0, i64 noundef %1, i64 noundef %2, ptr noundef %3) local_unnamed_addr #0 personality ptr @__gxx_personality_v0 {
  %5 = alloca i64, align 8
  %6 = alloca %"class.__cxxabiv1::(anonymous namespace)::st_cxa_cleanup", align 8
  %.not = icmp eq ptr %3, null
  br i1 %.not, label %24, label %7

7:                                                ; preds = %4
  call void @llvm.lifetime.start.p0(i64 8, ptr nonnull %5) #12
  store i64 %1, ptr %5, align 8, !tbaa !4
  call void @llvm.lifetime.start.p0(i64 40, ptr nonnull %6) #12
  store ptr %0, ptr %6, align 8, !tbaa !8
  %8 = getelementptr inbounds nuw i8, ptr %6, i64 8
  store ptr %5, ptr %8, align 8, !tbaa !13
  %9 = getelementptr inbounds nuw i8, ptr %6, i64 16
  store i64 %2, ptr %9, align 8, !tbaa !14
  %10 = getelementptr inbounds nuw i8, ptr %6, i64 24
  store ptr %3, ptr %10, align 8, !tbaa !15
  %11 = getelementptr inbounds nuw i8, ptr %6, i64 32
  store i8 1, ptr %11, align 8, !tbaa !16
  %12 = call zeroext i1 @__cxa_uncaught_exception() #12
  %13 = mul i64 %2, %1
  %14 = getelementptr inbounds nuw i8, ptr %0, i64 %13
  %15 = sub i64 0, %2
  br label %16

16:                                               ; preds = %19, %7
  %.0 = phi ptr [ %14, %7 ], [ %20, %19 ]
  %17 = load i64, ptr %5, align 8, !tbaa !4
  %18 = add i64 %17, -1
  store i64 %18, ptr %5, align 8, !tbaa !4
  %.not15 = icmp eq i64 %17, 0
  br i1 %.not15, label %_ZN10__cxxabiv112_GLOBAL__N_112st_terminateD2Ev.exit17, label %19

19:                                               ; preds = %16
  %20 = getelementptr inbounds i8, ptr %.0, i64 %15
  invoke void %3(ptr noundef %20)
          to label %16 unwind label %21, !llvm.loop !24

21:                                               ; preds = %19
  %22 = landingpad { ptr, i32 }
          cleanup
  br i1 %12, label %23, label %_ZN10__cxxabiv112_GLOBAL__N_112st_terminateD2Ev.exit

23:                                               ; preds = %21
  call void @_ZSt9terminatev() #13
  unreachable

_ZN10__cxxabiv112_GLOBAL__N_112st_terminateD2Ev.exit: ; preds = %21
  call fastcc void @_ZN10__cxxabiv112_GLOBAL__N_114st_cxa_cleanupD2Ev(ptr noundef nonnull align 8 dereferenceable(33) %6) #12
  call void @llvm.lifetime.end.p0(i64 40, ptr nonnull %6) #12
  call void @llvm.lifetime.end.p0(i64 8, ptr nonnull %5) #12
  resume { ptr, i32 } %22

_ZN10__cxxabiv112_GLOBAL__N_112st_terminateD2Ev.exit17: ; preds = %16
  call void @llvm.lifetime.end.p0(i64 40, ptr nonnull %6) #12
  call void @llvm.lifetime.end.p0(i64 8, ptr nonnull %5) #12
  br label %24

24:                                               ; preds = %_ZN10__cxxabiv112_GLOBAL__N_112st_terminateD2Ev.exit17, %4
  ret void
}